target datalayout = "e-m:e-p270:32:32-p271:32:32-p272:64:64-i64:64-i128:128-f80:128-n8:16:32:64-S128"
target triple = "x86_64-unknown-linux-gnu"

; Function Attrs: nounwind sspstrong uwtable
define internal void @bitmap_copy(ptr noundef %dst, ptr noundef %src, i64 noundef %nbits) #0 {
entry:
  %dst.addr = alloca ptr, align 8
  %src.addr = alloca ptr, align 8
  %nbits.addr = alloca i64, align 8
  %len = alloca i64, align 8
  store ptr %dst, ptr %dst.addr, align 8
  store ptr %src, ptr %src.addr, align 8
  store i64 %nbits, ptr %nbits.addr, align 8
  %0 = load i64, ptr %nbits.addr, align 8
  %cmp = icmp ule i64 %0, 64
  br i1 %cmp, label %if.then, label %if.else

if.then:                                          ; preds = %entry
  %1 = load ptr, ptr %src.addr, align 8
  %2 = load i64, ptr %1, align 8
  %3 = load ptr, ptr %dst.addr, align 8
  store i64 %2, ptr %3, align 8
  br label %if.end

if.else:                                          ; preds = %entry
  %4 = load i64, ptr %nbits.addr, align 8
  %add = add i64 %4, 64
  %sub = sub i64 %add, 1
  %div = udiv i64 %sub, 64
  %mul = mul i64 %div, 8
  store i64 %mul, ptr %len, align 8
  %5 = load ptr, ptr %dst.addr, align 8
  %6 = load ptr, ptr %src.addr, align 8
  %7 = load i64, ptr %len, align 8
  call void @llvm.memcpy.p0.p0.i64(ptr align 8 %5, ptr align 8 %6, i64 %7, i1 false)
  br label %if.end

if.end:                                           ; preds = %if.else, %if.then
  ret void
}

; Function Attrs: nounwind sspstrong uwtable
define dso_local void @bitmap_copy_with_dst_offset(ptr noundef %dst, ptr noundef %src, i64 noundef %shift, i64 noundef %nbits) #0 {
entry:
  %dst.addr = alloca ptr, align 8
  %src.addr = alloca ptr, align 8
  %shift.addr = alloca i64, align 8
  %nbits.addr = alloca i64, align 8
  %left_mask = alloca i64, align 8
  %right_mask = alloca i64, align 8
  %last_mask = alloca i64, align 8
  store ptr %dst, ptr %dst.addr, align 8
  store ptr %src, ptr %src.addr, align 8
  store i64 %shift, ptr %shift.addr, align 8
  store i64 %nbits, ptr %nbits.addr, align 8
  %0 = load i64, ptr %shift.addr, align 8
  %div = udiv i64 %0, 64
  %1 = load ptr, ptr %dst.addr, align 8
  %add.ptr = getelementptr i64, ptr %1, i64 %div
  store ptr %add.ptr, ptr %dst.addr, align 8
  %2 = load i64, ptr %shift.addr, align 8
  %rem = urem i64 %2, 64
  store i64 %rem, ptr %shift.addr, align 8
  %3 = load i64, ptr %shift.addr, align 8
  %tobool = icmp ne i64 %3, 0
  br i1 %tobool, label %if.end, label %if.then

if.then:                                          ; preds = %entry
  %4 = load ptr, ptr %dst.addr, align 8
  %5 = load ptr, ptr %src.addr, align 8
  %6 = load i64, ptr %nbits.addr, align 8
  call void @bitmap_copy(ptr noundef %4, ptr noundef %5, i64 noundef %6)
  br label %if.end34

if.end:                                           ; preds = %entry
  %7 = load i64, ptr %shift.addr, align 8
  %sub = sub i64 64, %7
  %shl = shl i64 1, %sub
  %sub1 = sub i64 %shl, 1
  store i64 %sub1, ptr %right_mask, align 8
  %8 = load i64, ptr %right_mask, align 8
  %not = xor i64 %8, -1
  store i64 %not, ptr %left_mask, align 8
  %9 = load i64, ptr %shift.addr, align 8
  %shl2 = shl i64 1, %9
  %sub3 = sub i64 %shl2, 1
  %10 = load ptr, ptr %dst.addr, align 8
  %11 = load i64, ptr %10, align 8
  %and = and i64 %11, %sub3
  store i64 %and, ptr %10, align 8
  br label %while.cond

while.cond:                                       ; preds = %while.body, %if.end
  %12 = load i64, ptr %nbits.addr, align 8
  %cmp = icmp uge i64 %12, 64
  br i1 %cmp, label %while.body, label %while.end

while.body:                                       ; preds = %while.cond
  %13 = load ptr, ptr %src.addr, align 8
  %14 = load i64, ptr %13, align 8
  %15 = load i64, ptr %right_mask, align 8
  %and4 = and i64 %14, %15
  %16 = load i64, ptr %shift.addr, align 8
  %shl5 = shl i64 %and4, %16
  %17 = load ptr, ptr %dst.addr, align 8
  %18 = load i64, ptr %17, align 8
  %or = or i64 %18, %shl5
  store i64 %or, ptr %17, align 8
  %19 = load ptr, ptr %src.addr, align 8
  %20 = load i64, ptr %19, align 8
  %21 = load i64, ptr %left_mask, align 8
  %and6 = and i64 %20, %21
  %22 = load i64, ptr %shift.addr, align 8
  %sub7 = sub i64 64, %22
  %shr = lshr i64 %and6, %sub7
  %23 = load ptr, ptr %dst.addr, align 8
  %arrayidx = getelementptr i64, ptr %23, i64 1
  store i64 %shr, ptr %arrayidx, align 8
  %24 = load ptr, ptr %dst.addr, align 8
  %incdec.ptr = getelementptr i64, ptr %24, i32 1
  store ptr %incdec.ptr, ptr %dst.addr, align 8
  %25 = load ptr, ptr %src.addr, align 8
  %incdec.ptr8 = getelementptr i64, ptr %25, i32 1
  store ptr %incdec.ptr8, ptr %src.addr, align 8
  %26 = load i64, ptr %nbits.addr, align 8
  %sub9 = sub i64 %26, 64
  store i64 %sub9, ptr %nbits.addr, align 8
  br label %while.cond, !llvm.loop !25

while.end:                                        ; preds = %while.cond
  %27 = load i64, ptr %nbits.addr, align 8
  %28 = load i64, ptr %shift.addr, align 8
  %sub10 = sub i64 64, %28
  %cmp11 = icmp ugt i64 %27, %sub10
  br i1 %cmp11, label %if.then12, label %if.else

if.then12:                                        ; preds = %while.end
  %29 = load ptr, ptr %src.addr, align 8
  %30 = load i64, ptr %29, align 8
  %31 = load i64, ptr %right_mask, align 8
  %and13 = and i64 %30, %31
  %32 = load i64, ptr %shift.addr, align 8
  %shl14 = shl i64 %and13, %32
  %33 = load ptr, ptr %dst.addr, align 8
  %34 = load i64, ptr %33, align 8
  %or15 = or i64 %34, %shl14
  store i64 %or15, ptr %33, align 8
  %35 = load i64, ptr %shift.addr, align 8
  %sub16 = sub i64 64, %35
  %36 = load i64, ptr %nbits.addr, align 8
  %sub17 = sub i64 %36, %sub16
  store i64 %sub17, ptr %nbits.addr, align 8
  %37 = load i64, ptr %nbits.addr, align 8
  %shl18 = shl i64 1, %37
  %sub19 = sub i64 %shl18, 1
  %38 = load i64, ptr %shift.addr, align 8
  %sub20 = sub i64 64, %38
  %shl21 = shl i64 %sub19, %sub20
  store i64 %shl21, ptr %last_mask, align 8
  %39 = load ptr, ptr %src.addr, align 8
  %40 = load i64, ptr %39, align 8
  %41 = load i64, ptr %last_mask, align 8
  %and22 = and i64 %40, %41
  %42 = load i64, ptr %shift.addr, align 8
  %sub23 = sub i64 64, %42
  %shr24 = lshr i64 %and22, %sub23
  %43 = load ptr, ptr %dst.addr, align 8
  %arrayidx25 = getelementptr i64, ptr %43, i64 1
  store i64 %shr24, ptr %arrayidx25, align 8
  br label %if.end34

if.else:                                          ; preds = %while.end
  %44 = load i64, ptr %nbits.addr, align 8
  %tobool26 = icmp ne i64 %44, 0
  br i1 %tobool26, label %if.then27, label %if.end33

if.then27:                                        ; preds = %if.else
  %45 = load i64, ptr %nbits.addr, align 8
  %shl28 = shl i64 1, %45
  %sub29 = sub i64 %shl28, 1
  store i64 %sub29, ptr %last_mask, align 8
  %46 = load ptr, ptr %src.addr, align 8
  %47 = load i64, ptr %46, align 8
  %48 = load i64, ptr %last_mask, align 8
  %and30 = and i64 %47, %48
  %49 = load i64, ptr %shift.addr, align 8
  %shl31 = shl i64 %and30, %49
  %50 = load ptr, ptr %dst.addr, align 8
  %51 = load i64, ptr %50, align 8
  %or32 = or i64 %51, %shl31
  store i64 %or32, ptr %50, align 8
  br label %if.end33

if.end33:                                         ; preds = %if.then27, %if.else
  br label %if.end34

if.end34:                                         ; preds = %if.end33, %if.then12, %if.then
  ret void
}