; Function Attrs: nofree norecurse nosync nounwind sspstrong memory(argmem: readwrite) uwtable
define dso_local void @bitmap_copy_with_dst_offset(ptr noundef captures(none) %dst, ptr noundef readonly captures(none) %src, i64 noundef %shift, i64 noundef %nbits) local_unnamed_addr #1 {
entry:
  %div37 = lshr i64 %shift, 6
  %add.ptr = getelementptr i64, ptr %dst, i64 %div37
  %rem = and i64 %shift, 63
  %tobool.not = icmp eq i64 %rem, 0
  br i1 %tobool.not, label %if.then, label %if.end

if.then:                                          ; preds = %entry
  %cmp.i = icmp ult i64 %nbits, 65
  br i1 %cmp.i, label %if.then.i, label %if.else.i

if.then.i:                                        ; preds = %if.then
  %0 = load i64, ptr %src, align 8
  store i64 %0, ptr %add.ptr, align 8
  br label %if.end34

if.else.i:                                        ; preds = %if.then
  %sub.i = add i64 %nbits, 63
  %1 = lshr i64 %sub.i, 3
  %mul.i = and i64 %1, 2305843009213693944
  tail call void @llvm.memcpy.p0.p0.i64(ptr align 8 %add.ptr, ptr readonly align 8 %src, i64 %mul.i, i1 false)
  br label %if.end34

if.end:                                           ; preds = %entry
  %sub = sub nuw nsw i64 64, %rem
  %notmask = shl nsw i64 -1, %sub
  %notmask38 = shl nsw i64 -1, %rem
  %sub3 = xor i64 %notmask38, -1
  %2 = load i64, ptr %add.ptr, align 8
  %and = and i64 %2, %sub3
  store i64 %and, ptr %add.ptr, align 8
  %cmp41 = icmp ugt i64 %nbits, 63
  br i1 %cmp41, label %while.body, label %while.end

while.body:                                       ; preds = %if.end, %while.body
  %3 = phi i64 [ %shr, %while.body ], [ %and, %if.end ]
  %dst.addr.044 = phi ptr [ %arrayidx, %while.body ], [ %add.ptr, %if.end ]
  %src.addr.043 = phi ptr [ %incdec.ptr8, %while.body ], [ %src, %if.end ]
  %nbits.addr.042 = phi i64 [ %sub9, %while.body ], [ %nbits, %if.end ]
  %4 = load i64, ptr %src.addr.043, align 8
  %shl5 = shl i64 %4, %rem
  %or = or i64 %3, %shl5
  store i64 %or, ptr %dst.addr.044, align 8
  %5 = load i64, ptr %src.addr.043, align 8
  %and6 = and i64 %5, %notmask
  %shr = lshr i64 %and6, %sub
  %arrayidx = getelementptr i8, ptr %dst.addr.044, i64 8
  store i64 %shr, ptr %arrayidx, align 8
  %incdec.ptr8 = getelementptr i8, ptr %src.addr.043, i64 8
  %sub9 = add i64 %nbits.addr.042, -64
  %cmp = icmp ugt i64 %sub9, 63
  br i1 %cmp, label %while.body, label %while.end, !llvm.loop !22

while.end:                                        ; preds = %while.body, %if.end
  %6 = phi i64 [ %and, %if.end ], [ %shr, %while.body ]
  %nbits.addr.0.lcssa = phi i64 [ %nbits, %if.end ], [ %sub9, %while.body ]
  %src.addr.0.lcssa = phi ptr [ %src, %if.end ], [ %incdec.ptr8, %while.body ]
  %dst.addr.0.lcssa = phi ptr [ %add.ptr, %if.end ], [ %arrayidx, %while.body ]
  %cmp11 = icmp samesign ugt i64 %nbits.addr.0.lcssa, %sub
  br i1 %cmp11, label %if.then12, label %if.else

if.then12:                                        ; preds = %while.end
  %7 = load i64, ptr %src.addr.0.lcssa, align 8
  %shl14 = shl i64 %7, %rem
  %or15 = or i64 %6, %shl14
  store i64 %or15, ptr %dst.addr.0.lcssa, align 8
  %sub17 = sub nuw nsw i64 %nbits.addr.0.lcssa, %sub
  %notmask40 = shl nsw i64 -1, %sub17
  %sub19 = xor i64 %notmask40, -1
  %shl21 = shl i64 %sub19, %sub
  %8 = load i64, ptr %src.addr.0.lcssa, align 8
  %and22 = and i64 %8, %shl21
  %shr24 = lshr i64 %and22, %sub
  %arrayidx25 = getelementptr i8, ptr %dst.addr.0.lcssa, i64 8
  store i64 %shr24, ptr %arrayidx25, align 8
  br label %if.end34

if.else:                                          ; preds = %while.end
  %tobool26.not = icmp eq i64 %nbits.addr.0.lcssa, 0
  br i1 %tobool26.not, label %if.end34, label %if.then27

if.then27:                                        ; preds = %if.else
  %notmask39 = shl nsw i64 -1, %nbits.addr.0.lcssa
  %sub29 = xor i64 %notmask39, -1
  %9 = load i64, ptr %src.addr.0.lcssa, align 8
  %and30 = and i64 %9, %sub29
  %shl31 = shl i64 %and30, %rem
  %or32 = or i64 %shl31, %6
  store i64 %or32, ptr %dst.addr.0.lcssa, align 8
  br label %if.end34

if.end34:                                         ; preds = %if.else.i, %if.then.i, %if.else, %if.then27, %if.then12
  ret void
}